target datalayout = "e-m:e-p270:32:32-p271:32:32-p272:64:64-i64:64-i128:128-f80:128-n8:16:32:64-S128"
target triple = "x86_64-pc-linux-gnu"

%struct._zend_executor_globals = type { %struct._zval_struct, %struct._zval_struct, [32 x ptr], ptr, ptr, %struct._zend_array, %struct._zend_array, ptr, i32, i32, ptr, ptr, ptr, ptr, ptr, ptr, i64, ptr, ptr, i32, i32, i64, i32, i32, i32, i8, i8, %struct.zend_atomic_bool_s, %struct.zend_atomic_bool_s, ptr, i64, ptr, ptr, %struct._zend_array, %struct._zend_array, i32, i8, %struct._zval_struct, %struct._zval_struct, %struct._zend_stack, %struct._zend_stack, %struct._zend_stack, ptr, i32, i32, i64, ptr, ptr, ptr, %struct._zend_objects_store, ptr, ptr, ptr, [3 x %struct._zend_op], ptr, i8, i8, i64, i32, i32, ptr, [16 x %struct._HashTableIterator], ptr, %union._zend_function, %struct._zend_op, %struct._zend_array, i64, %struct.zend_get_gc_buffer, ptr, ptr, ptr, i64, i8, i32, ptr, ptr, i64, %struct._zend_call_stack, i64, i64, [6 x ptr] }
%struct.zend_atomic_bool_s = type { i8 }
%struct._zval_struct = type { %union._zend_value, %union.anon, %union.anon.2 }
%union._zend_value = type { i64 }
%union.anon = type { i32 }
%union.anon.2 = type { i32 }
%struct._zend_stack = type { i32, i32, i32, ptr }
%struct._zend_objects_store = type { ptr, i32, i32, i32 }
%struct._HashTableIterator = type { ptr, i32, i32 }
%union._zend_function = type { %struct._zend_op_array }
%struct._zend_op_array = type { i8, [3 x i8], i32, ptr, ptr, ptr, i32, i32, ptr, ptr, ptr, ptr, i32, i32, i32, i32, ptr, ptr, ptr, ptr, ptr, i32, i32, ptr, ptr, ptr, i32, i32, i32, i32, ptr, ptr, [6 x ptr] }
%struct._zend_op = type { ptr, %union._znode_op, %union._znode_op, %union._znode_op, i32, i32, i8, i8, i8, i8 }
%union._znode_op = type { i32 }
%struct._zend_array = type { %struct._zend_refcounted_h, %union.anon.4, i32, %union.anon.6, i32, i32, i32, i32, i64, ptr }
%struct._zend_refcounted_h = type { i32, %union.anon.3 }
%union.anon.3 = type { i32 }
%union.anon.4 = type { i32 }
%union.anon.6 = type { ptr }
%struct.zend_get_gc_buffer = type { ptr, ptr, ptr }
%struct._zend_call_stack = type { ptr, i64 }
%struct._zend_string = type { %struct._zend_refcounted_h, i64, i64, [1 x i8] }
%struct._dom_object = type { ptr, ptr, ptr, %struct._zend_object }
%struct._zend_object = type { %struct._zend_refcounted_h, i32, ptr, ptr, ptr, [1 x %struct._zval_struct] }
%struct._libxml_doc_props = type { ptr, i8, i8, i8, i8, i8, i8, i8 }
%struct._zend_execute_data = type { ptr, ptr, ptr, ptr, %struct._zval_struct, ptr, ptr, ptr, ptr }
%struct._zend_class_entry = type { i8, ptr, %union.anon.8, i32, i32, i32, i32, ptr, ptr, ptr, %struct._zend_array, %struct._zend_array, %struct._zend_array, ptr, ptr, ptr, ptr, ptr, ptr, ptr, ptr, ptr, ptr, ptr, ptr, ptr, ptr, ptr, ptr, ptr, ptr, ptr, %union.anon.9, ptr, ptr, ptr, ptr, i32, i32, %union.anon.10, ptr, ptr, ptr, ptr, i32, ptr, ptr, %union.anon.11 }
%union.anon.8 = type { ptr }
%union.anon.9 = type { ptr }
%union.anon.10 = type { ptr }
%union.anon.11 = type { %struct.anon.12 }
%struct.anon.12 = type { ptr, i32, i32 }
%struct._php_libxml_node_ptr = type { ptr, i32, ptr }

@executor_globals = external global %struct._zend_executor_globals, align 8
@.str.2 = private unnamed_addr constant [18 x i8] c"Couldn't fetch %s\00", align 1
@.str.22 = private unnamed_addr constant [4 x i8] c"p|l\00", align 1
@.str.23 = private unnamed_addr constant [18 x i8] c"must not be empty\00", align 1

; Function Attrs: nounwind uwtable
define internal ptr @php_dom_obj_from_obj(ptr noundef %0) #0 {
  %2 = alloca ptr, align 8
  store ptr %0, ptr %2, align 8
  %3 = load ptr, ptr %2, align 8
  %4 = getelementptr inbounds i8, ptr %3, i64 -24
  ret ptr %4
}

; Function Attrs: nounwind uwtable
define hidden void @zim_DOMDocument_save(ptr noundef %0, ptr noundef %1) #0 {
  %3 = alloca ptr, align 8
  %4 = alloca ptr, align 8
  %5 = alloca ptr, align 8
  %6 = alloca ptr, align 8
  %7 = alloca i64, align 8
  %8 = alloca i32, align 4
  %9 = alloca i32, align 4
  %10 = alloca i32, align 4
  %11 = alloca ptr, align 8
  %12 = alloca ptr, align 8
  %13 = alloca i64, align 8
  %14 = alloca ptr, align 8
  %15 = alloca ptr, align 8
  store ptr %0, ptr %3, align 8
  store ptr %1, ptr %4, align 8
  store i64 0, ptr %7, align 8
  store i32 0, ptr %10, align 4
  store i64 0, ptr %13, align 8
  %16 = load ptr, ptr %3, align 8
  %17 = getelementptr inbounds %struct._zend_execute_data, ptr %16, i32 0, i32 4
  store ptr %17, ptr %5, align 8
  %18 = load ptr, ptr %3, align 8
  %19 = getelementptr inbounds %struct._zend_execute_data, ptr %18, i32 0, i32 4
  %20 = getelementptr inbounds %struct._zval_struct, ptr %19, i32 0, i32 2
  %21 = load i32, ptr %20, align 4
  %22 = call i32 (i32, ptr, ...) @zend_parse_parameters(i32 noundef %21, ptr noundef @.str.22, ptr noundef %12, ptr noundef %7, ptr noundef %13)
  %23 = icmp eq i32 %22, -1
  br i1 %23, label %24, label %29

24:                                               ; preds = %2
  br label %25

25:                                               ; preds = %24
  %26 = load ptr, ptr getelementptr inbounds (%struct._zend_executor_globals, ptr @executor_globals, i32 0, i32 50), align 8
  %27 = icmp ne ptr %26, null
  call void @llvm.assume(i1 %27)
  br label %118

28:                                               ; No predecessors!
  br label %29

29:                                               ; preds = %28, %2
  %30 = load i64, ptr %7, align 8
  %31 = icmp eq i64 %30, 0
  br i1 %31, label %32, label %37

32:                                               ; preds = %29
  call void (i32, ptr, ...) @zend_argument_value_error(i32 noundef 1, ptr noundef @.str.23)
  br label %33

33:                                               ; preds = %32
  %34 = load ptr, ptr getelementptr inbounds (%struct._zend_executor_globals, ptr @executor_globals, i32 0, i32 50), align 8
  %35 = icmp ne ptr %34, null
  call void @llvm.assume(i1 %35)
  br label %118

36:                                               ; No predecessors!
  br label %37

37:                                               ; preds = %36, %29
  %38 = load ptr, ptr %5, align 8
  %39 = getelementptr inbounds %struct._zval_struct, ptr %38, i32 0, i32 0
  %40 = load ptr, ptr %39, align 8
  %41 = call ptr @php_dom_obj_from_obj(ptr noundef %40)
  store ptr %41, ptr %11, align 8
  %42 = load ptr, ptr %11, align 8
  %43 = getelementptr inbounds %struct._dom_object, ptr %42, i32 0, i32 0
  %44 = load ptr, ptr %43, align 8
  %45 = icmp eq ptr %44, null
  %46 = xor i1 %45, true
  %47 = xor i1 %46, true
  %48 = zext i1 %47 to i32
  %49 = sext i32 %48 to i64
  %50 = icmp ne i64 %49, 0
  br i1 %50, label %51, label %64

51:                                               ; preds = %37
  %52 = load ptr, ptr %11, align 8
  %53 = getelementptr inbounds %struct._dom_object, ptr %52, i32 0, i32 3
  %54 = getelementptr inbounds %struct._zend_object, ptr %53, i32 0, i32 2
  %55 = load ptr, ptr %54, align 8
  %56 = getelementptr inbounds %struct._zend_class_entry, ptr %55, i32 0, i32 1
  %57 = load ptr, ptr %56, align 8
  %58 = getelementptr inbounds %struct._zend_string, ptr %57, i32 0, i32 3
  %59 = getelementptr inbounds [1 x i8], ptr %58, i64 0, i64 0
  call void (ptr, ptr, ...) @zend_throw_error(ptr noundef null, ptr noundef @.str.2, ptr noundef %59)
  br label %60

60:                                               ; preds = %51
  %61 = load ptr, ptr getelementptr inbounds (%struct._zend_executor_globals, ptr @executor_globals, i32 0, i32 50), align 8
  %62 = icmp ne ptr %61, null
  call void @llvm.assume(i1 %62)
  br label %118

63:                                               ; No predecessors!
  br label %64

64:                                               ; preds = %63, %37
  %65 = load ptr, ptr %11, align 8
  %66 = getelementptr inbounds %struct._dom_object, ptr %65, i32 0, i32 0
  %67 = load ptr, ptr %66, align 8
  %68 = getelementptr inbounds %struct._php_libxml_node_ptr, ptr %67, i32 0, i32 0
  %69 = load ptr, ptr %68, align 8
  store ptr %69, ptr %6, align 8
  %70 = load ptr, ptr %11, align 8
  %71 = getelementptr inbounds %struct._dom_object, ptr %70, i32 0, i32 1
  %72 = load ptr, ptr %71, align 8
  %73 = call ptr @dom_get_doc_props_read_only(ptr noundef %72)
  store ptr %73, ptr %14, align 8
  %74 = load ptr, ptr %14, align 8
  %75 = getelementptr inbounds %struct._libxml_doc_props, ptr %74, i32 0, i32 1
  %76 = load i8, ptr %75, align 8
  %77 = trunc i8 %76 to i1
  %78 = zext i1 %77 to i32
  store i32 %78, ptr %9, align 4
  %79 = load i64, ptr %13, align 8
  %80 = and i64 %79, 4
  %81 = icmp ne i64 %80, 0
  br i1 %81, label %82, label %86

82:                                               ; preds = %64
  %83 = call ptr @__xmlSaveNoEmptyTags()
  %84 = load i32, ptr %83, align 4
  store i32 %84, ptr %10, align 4
  %85 = call ptr @__xmlSaveNoEmptyTags()
  store i32 1, ptr %85, align 4
  br label %86

86:                                               ; preds = %82, %64
  %87 = load ptr, ptr %12, align 8
  %88 = load ptr, ptr %6, align 8
  %89 = load i32, ptr %9, align 4
  %90 = call i32 @xmlSaveFormatFileEnc(ptr noundef %87, ptr noundef %88, ptr noundef null, i32 noundef %89)
  store i32 %90, ptr %8, align 4
  %91 = load i64, ptr %13, align 8
  %92 = and i64 %91, 4
  %93 = icmp ne i64 %92, 0
  br i1 %93, label %94, label %97

94:                                               ; preds = %86
  %95 = load i32, ptr %10, align 4
  %96 = call ptr @__xmlSaveNoEmptyTags()
  store i32 %95, ptr %96, align 4
  br label %97

97:                                               ; preds = %94, %86
  %98 = load i32, ptr %8, align 4
  %99 = icmp eq i32 %98, -1
  br i1 %99, label %100, label %107

100:                                              ; preds = %97
  br label %101

101:                                              ; preds = %100
  br label %102

102:                                              ; preds = %101
  %103 = load ptr, ptr %4, align 8
  %104 = getelementptr inbounds %struct._zval_struct, ptr %103, i32 0, i32 1
  store i32 2, ptr %104, align 8
  br label %105

105:                                              ; preds = %102
  br label %118

106:                                              ; No predecessors!
  br label %107

107:                                              ; preds = %106, %97
  br label %108

108:                                              ; preds = %107
  br label %109

109:                                              ; preds = %108
  %110 = load ptr, ptr %4, align 8
  store ptr %110, ptr %15, align 8
  %111 = load i32, ptr %8, align 4
  %112 = sext i32 %111 to i64
  %113 = load ptr, ptr %15, align 8
  %114 = getelementptr inbounds %struct._zval_struct, ptr %113, i32 0, i32 0
  store i64 %112, ptr %114, align 8
  %115 = load ptr, ptr %15, align 8
  %116 = getelementptr inbounds %struct._zval_struct, ptr %115, i32 0, i32 1
  store i32 4, ptr %116, align 8
  br label %117

117:                                              ; preds = %109
  br label %118

118:                                              ; preds = %117, %105, %60, %33, %25
  ret void
}