; Function Attrs: nounwind uwtable
define hidden void @zim_DOMDocument_save(ptr nocapture noundef readonly %0, ptr nocapture noundef writeonly %1) local_unnamed_addr #0 {
  %3 = alloca i64, align 8
  %4 = alloca ptr, align 8
  %5 = alloca i64, align 8
  store i64 0, ptr %3, align 8
  store i64 0, ptr %5, align 8
  %6 = getelementptr inbounds i8, ptr %0, i64 32
  %7 = getelementptr inbounds i8, ptr %0, i64 44
  %8 = load i32, ptr %7, align 4
  %9 = call i32 (i32, ptr, ...) @zend_parse_parameters(i32 noundef %8, ptr noundef nonnull @.str.22, ptr noundef nonnull %4, ptr noundef nonnull %3, ptr noundef nonnull %5) #10
  %10 = icmp eq i32 %9, -1
  br i1 %10, label %11, label %14

11:                                               ; preds = %2
  %12 = load ptr, ptr getelementptr inbounds (%struct._zend_executor_globals, ptr @executor_globals, i64 0, i32 50), align 8
  %13 = icmp ne ptr %12, null
  call void @llvm.assume(i1 %13)
  br label %62

14:                                               ; preds = %2
  %15 = load i64, ptr %3, align 8
  %16 = icmp eq i64 %15, 0
  br i1 %16, label %17, label %20

17:                                               ; preds = %14
  call void (i32, ptr, ...) @zend_argument_value_error(i32 noundef 1, ptr noundef nonnull @.str.23) #10
  %18 = load ptr, ptr getelementptr inbounds (%struct._zend_executor_globals, ptr @executor_globals, i64 0, i32 50), align 8
  %19 = icmp ne ptr %18, null
  call void @llvm.assume(i1 %19)
  br label %62

20:                                               ; preds = %14
  %21 = load ptr, ptr %6, align 8
  %22 = getelementptr inbounds i8, ptr %21, i64 -24
  %23 = load ptr, ptr %22, align 8
  %24 = icmp eq ptr %23, null
  br i1 %24, label %25, label %33

25:                                               ; preds = %20
  %26 = getelementptr inbounds i8, ptr %21, i64 16
  %27 = load ptr, ptr %26, align 8
  %28 = getelementptr inbounds i8, ptr %27, i64 8
  %29 = load ptr, ptr %28, align 8
  %30 = getelementptr inbounds i8, ptr %29, i64 24
  call void (ptr, ptr, ...) @zend_throw_error(ptr noundef null, ptr noundef nonnull @.str.2, ptr noundef nonnull %30) #10
  %31 = load ptr, ptr getelementptr inbounds (%struct._zend_executor_globals, ptr @executor_globals, i64 0, i32 50), align 8
  %32 = icmp ne ptr %31, null
  call void @llvm.assume(i1 %32)
  br label %62

33:                                               ; preds = %20
  %34 = load ptr, ptr %23, align 8
  %35 = getelementptr inbounds i8, ptr %21, i64 -16
  %36 = load ptr, ptr %35, align 8
  %37 = call ptr @dom_get_doc_props_read_only(ptr noundef %36) #10
  %38 = getelementptr inbounds i8, ptr %37, i64 8
  %39 = load i8, ptr %38, align 8
  %40 = and i8 %39, 1
  %41 = zext nneg i8 %40 to i32
  %42 = load i64, ptr %5, align 8
  %43 = and i64 %42, 4
  %.not = icmp eq i64 %43, 0
  br i1 %.not, label %48, label %44

44:                                               ; preds = %33
  %45 = call ptr @__xmlSaveNoEmptyTags() #10
  %46 = load i32, ptr %45, align 4
  %47 = call ptr @__xmlSaveNoEmptyTags() #10
  store i32 1, ptr %47, align 4
  br label %48

48:                                               ; preds = %44, %33
  %.0 = phi i32 [ %46, %44 ], [ 0, %33 ]
  %49 = load ptr, ptr %4, align 8
  %50 = call i32 @xmlSaveFormatFileEnc(ptr noundef %49, ptr noundef %34, ptr noundef null, i32 noundef %41) #10
  %51 = load i64, ptr %5, align 8
  %52 = and i64 %51, 4
  %.not18 = icmp eq i64 %52, 0
  br i1 %.not18, label %55, label %53

53:                                               ; preds = %48
  %54 = call ptr @__xmlSaveNoEmptyTags() #10
  store i32 %.0, ptr %54, align 4
  br label %55

55:                                               ; preds = %53, %48
  %56 = icmp eq i32 %50, -1
  br i1 %56, label %57, label %59

57:                                               ; preds = %55
  %58 = getelementptr inbounds i8, ptr %1, i64 8
  store i32 2, ptr %58, align 8
  br label %62

59:                                               ; preds = %55
  %60 = sext i32 %50 to i64
  store i64 %60, ptr %1, align 8
  %61 = getelementptr inbounds i8, ptr %1, i64 8
  store i32 4, ptr %61, align 8
  br label %62

62:                                               ; preds = %59, %57, %25, %17, %11
  ret void
}